target datalayout = "e-m:e-p270:32:32-p271:32:32-p272:64:64-i64:64-i128:128-f80:128-n8:16:32:64-S128"
target triple = "x86_64-pc-linux-gnu"

%class.MarkedFileReader = type { %class.FileReader, i64 }
%class.FileReader = type { ptr, ptr }
%"class.DwarfFile::MarkedDwarfFileReader" = type { %class.MarkedFileReader, i64, i64 }

; Function Attrs: mustprogress nounwind uwtable
define hidden noundef zeroext i1 @_ZN10FileReader12set_positionEl(ptr noundef nonnull align 8 dereferenceable(16) %0, i64 noundef %1) unnamed_addr #1 align 2 {
  %3 = alloca ptr, align 8
  %4 = alloca i64, align 8
  store ptr %0, ptr %3, align 8
  store i64 %1, ptr %4, align 8
  %5 = load ptr, ptr %3, align 8
  %6 = getelementptr inbounds %class.FileReader, ptr %5, i32 0, i32 1
  %7 = load ptr, ptr %6, align 8
  %8 = load i64, ptr %4, align 8
  %9 = call i32 @fseek(ptr noundef %7, i64 noundef %8, i32 noundef 0)
  %10 = icmp eq i32 %9, 0
  ret i1 %10
}

; Function Attrs: mustprogress nounwind uwtable
define hidden noundef zeroext i1 @_ZN9DwarfFile21MarkedDwarfFileReader25update_to_stored_positionEv(ptr noundef nonnull align 8 dereferenceable(40) %0) #1 align 2 {
  %2 = alloca i1, align 1
  %3 = alloca ptr, align 8
  store ptr %0, ptr %3, align 8
  %4 = load ptr, ptr %3, align 8
  %5 = getelementptr inbounds %class.FileReader, ptr %4, i32 0, i32 1
  %6 = load ptr, ptr %5, align 8
  %7 = call i64 @ftell(ptr noundef %6)
  %8 = getelementptr inbounds %class.MarkedFileReader, ptr %4, i32 0, i32 1
  store i64 %7, ptr %8, align 8
  %9 = getelementptr inbounds %class.MarkedFileReader, ptr %4, i32 0, i32 1
  %10 = load i64, ptr %9, align 8
  %11 = icmp slt i64 %10, 0
  br i1 %11, label %12, label %13

12:                                               ; preds = %1
  store i1 false, ptr %2, align 1
  br label %17

13:                                               ; preds = %1
  %14 = getelementptr inbounds %"class.DwarfFile::MarkedDwarfFileReader", ptr %4, i32 0, i32 1
  %15 = load i64, ptr %14, align 8
  %16 = call noundef zeroext i1 @_ZN10FileReader12set_positionEl(ptr noundef nonnull align 8 dereferenceable(16) %4, i64 noundef %15)
  store i1 %16, ptr %2, align 1
  br label %17

17:                                               ; preds = %13, %12
  %18 = load i1, ptr %2, align 1
  ret i1 %18
}