; Function Attrs: mustprogress nofree nounwind uwtable
define hidden noundef zeroext i1 @_ZN9DwarfFile21MarkedDwarfFileReader25update_to_stored_positionEv(ptr nocapture noundef nonnull align 8 dereferenceable(40) %0) local_unnamed_addr #3 align 2 {
  %2 = getelementptr inbounds i8, ptr %0, i64 8
  %3 = load ptr, ptr %2, align 8
  %4 = tail call i64 @ftell(ptr noundef %3)
  %5 = getelementptr inbounds i8, ptr %0, i64 16
  store i64 %4, ptr %5, align 8
  %6 = icmp slt i64 %4, 0
  br i1 %6, label %13, label %7

7:                                                ; preds = %1
  %8 = getelementptr inbounds i8, ptr %0, i64 24
  %9 = load i64, ptr %8, align 8
  %10 = load ptr, ptr %2, align 8
  %11 = tail call i32 @fseek(ptr noundef %10, i64 noundef %9, i32 noundef 0)
  %12 = icmp eq i32 %11, 0
  br label %13

13:                                               ; preds = %1, %7
  %.0 = phi i1 [ %12, %7 ], [ false, %1 ]
  ret i1 %.0
}